target datalayout = "e-m:e-p270:32:32-p271:32:32-p272:64:64-i64:64-i128:128-f80:128-n8:16:32:64-S128"
target triple = "x86_64-pc-linux-gnu"

%"class.clang::interp::InterpState" = type { %"class.clang::interp::State.base", %"class.clang::interp::SourceMapper", ptr, ptr, ptr, %"class.clang::interp::DynamicAllocator", ptr, ptr, ptr, ptr, %"class.clang::SourceLocation", ptr, %"class.llvm::SmallVector.6" }
%"class.clang::interp::State.base" = type <{ ptr, i8 }>
%"class.clang::interp::SourceMapper" = type { ptr }
%"class.clang::interp::DynamicAllocator" = type { %"class.llvm::DenseMap", %"class.llvm::BumpPtrAllocatorImpl" }
%"class.llvm::DenseMap" = type <{ ptr, i32, i32, i32, [4 x i8] }>
%"class.llvm::BumpPtrAllocatorImpl" = type { ptr, ptr, %"class.llvm::SmallVector", %"class.llvm::SmallVector.1", i64, i64 }
%"class.llvm::SmallVector" = type { %"class.llvm::SmallVectorImpl", %"struct.llvm::SmallVectorStorage" }
%"class.llvm::SmallVectorImpl" = type { %"class.llvm::SmallVectorTemplateBase" }
%"class.llvm::SmallVectorTemplateBase" = type { %"class.llvm::SmallVectorTemplateCommon" }
%"class.llvm::SmallVectorTemplateCommon" = type { %"class.llvm::SmallVectorBase" }
%"class.llvm::SmallVectorBase" = type { ptr, i32, i32 }
%"struct.llvm::SmallVectorStorage" = type { [32 x i8] }
%"class.llvm::SmallVector.1" = type { %"class.llvm::SmallVectorImpl.2" }
%"class.llvm::SmallVectorImpl.2" = type { %"class.llvm::SmallVectorTemplateBase.3" }
%"class.llvm::SmallVectorTemplateBase.3" = type { %"class.llvm::SmallVectorTemplateCommon.4" }
%"class.llvm::SmallVectorTemplateCommon.4" = type { %"class.llvm::SmallVectorBase" }
%"class.clang::SourceLocation" = type { i32 }
%"class.llvm::SmallVector.6" = type { %"class.llvm::SmallVectorImpl.7", %"struct.llvm::SmallVectorStorage.10" }
%"class.llvm::SmallVectorImpl.7" = type { %"class.llvm::SmallVectorTemplateBase.8" }
%"class.llvm::SmallVectorTemplateBase.8" = type { %"class.llvm::SmallVectorTemplateCommon.9" }
%"class.llvm::SmallVectorTemplateCommon.9" = type { %"class.llvm::SmallVectorBase" }
%"struct.llvm::SmallVectorStorage.10" = type { [48 x i8] }
%"class.clang::interp::CodePtr" = type { ptr }

; Function Attrs: mustprogress nounwind uwtable
define linkonce_odr hidden noundef i64 @_ZNK5clang6interp11InterpStack12aligned_sizeINS0_7PointerEEEmv(ptr noundef nonnull align 8 dereferenceable(16) %0) #0 comdat align 2 {
  %2 = alloca ptr, align 8
  %3 = alloca i64, align 8
  store ptr %0, ptr %2, align 8
  store i64 8, ptr %3, align 8
  ret i64 56
}

; Function Attrs: mustprogress nounwind uwtable
define linkonce_odr hidden noundef nonnull align 8 dereferenceable(52) ptr @_ZNK5clang6interp11InterpStack12peekInternalINS0_7PointerEEERT_v(ptr noundef nonnull align 8 dereferenceable(16) %0) #0 comdat align 2 {
  %2 = alloca ptr, align 8
  store ptr %0, ptr %2, align 8
  %3 = load ptr, ptr %2, align 8
  %4 = call noundef i64 @_ZNK5clang6interp11InterpStack12aligned_sizeINS0_7PointerEEEmv(ptr noundef nonnull align 8 dereferenceable(16) %3)
  %5 = call noundef ptr @_ZNK5clang6interp11InterpStack8peekDataEm(ptr noundef nonnull align 8 dereferenceable(16) %3, i64 noundef %4)
  ret ptr %5
}

; Function Attrs: mustprogress nounwind uwtable
define linkonce_odr hidden void @_ZN5clang6interp11InterpStack4pushINS0_7PointerEJRKS3_EEEvDpOT0_(ptr noundef nonnull align 8 dereferenceable(16) %0, ptr noundef nonnull align 8 dereferenceable(52) %1) #0 comdat align 2 {
  %3 = alloca ptr, align 8
  %4 = alloca ptr, align 8
  store ptr %0, ptr %3, align 8
  store ptr %1, ptr %4, align 8
  %5 = load ptr, ptr %3, align 8
  %6 = call noundef i64 @_ZNK5clang6interp11InterpStack12aligned_sizeINS0_7PointerEEEmv(ptr noundef nonnull align 8 dereferenceable(16) %5)
  %7 = call noundef ptr @_ZN5clang6interp11InterpStack4growEm(ptr noundef nonnull align 8 dereferenceable(16) %5, i64 noundef %6)
  %8 = load ptr, ptr %4, align 8
  call void @_ZN5clang6interp7PointerC1ERKS1_(ptr noundef nonnull align 8 dereferenceable(52) %7, ptr noundef nonnull align 8 dereferenceable(52) %8)
  ret void
}

; Function Attrs: mustprogress nounwind uwtable
define linkonce_odr hidden noundef nonnull align 8 dereferenceable(52) ptr @_ZNK5clang6interp11InterpStack4peekINS0_7PointerEEERT_v(ptr noundef nonnull align 8 dereferenceable(16) %0) #0 comdat align 2 {
  %2 = alloca ptr, align 8
  store ptr %0, ptr %2, align 8
  %3 = load ptr, ptr %2, align 8
  %4 = call noundef nonnull align 8 dereferenceable(52) ptr @_ZNK5clang6interp11InterpStack12peekInternalINS0_7PointerEEERT_v(ptr noundef nonnull align 8 dereferenceable(16) %3)
  ret ptr %4
}

; Function Attrs: mustprogress nounwind uwtable
define internal noundef zeroext i1 @_ZN5clang6interpL11noopPointerERNS0_11InterpStateENS0_7CodePtrEPKNS0_11InterpFrameEPKNS0_8FunctionEPKNS_8CallExprE(ptr noundef nonnull align 8 dereferenceable(280) %0, ptr %1, ptr noundef %2, ptr noundef %3, ptr noundef %4) #0 {
  %6 = alloca %"class.clang::interp::CodePtr", align 8
  %7 = alloca ptr, align 8
  %8 = alloca ptr, align 8
  %9 = alloca ptr, align 8
  %10 = alloca ptr, align 8
  %11 = alloca ptr, align 8
  %12 = getelementptr inbounds nuw %"class.clang::interp::CodePtr", ptr %6, i32 0, i32 0
  store ptr %1, ptr %12, align 8
  store ptr %0, ptr %7, align 8
  store ptr %2, ptr %8, align 8
  store ptr %3, ptr %9, align 8
  store ptr %4, ptr %10, align 8
  %13 = load ptr, ptr %7, align 8
  %14 = getelementptr inbounds nuw %"class.clang::interp::InterpState", ptr %13, i32 0, i32 7
  %15 = load ptr, ptr %14, align 8
  %16 = call noundef nonnull align 8 dereferenceable(52) ptr @_ZNK5clang6interp11InterpStack4peekINS0_7PointerEEERT_v(ptr noundef nonnull align 8 dereferenceable(16) %15)
  store ptr %16, ptr %11, align 8
  %17 = load ptr, ptr %7, align 8
  %18 = getelementptr inbounds nuw %"class.clang::interp::InterpState", ptr %17, i32 0, i32 7
  %19 = load ptr, ptr %18, align 8
  %20 = load ptr, ptr %11, align 8
  call void @_ZN5clang6interp11InterpStack4pushINS0_7PointerEJRKS3_EEEvDpOT0_(ptr noundef nonnull align 8 dereferenceable(16) %19, ptr noundef nonnull align 8 dereferenceable(52) %20)
  ret i1 true
}