; Function Attrs: mustprogress nounwind uwtable
define internal fastcc void @_ZN5clang6interpL11noopPointerERNS0_11InterpStateENS0_7CodePtrEPKNS0_11InterpFrameEPKNS0_8FunctionEPKNS_8CallExprE(ptr noundef nonnull readonly align 8 captures(none) dereferenceable(280) %0) unnamed_addr #0 {
  %2 = getelementptr inbounds nuw i8, ptr %0, i64 176
  %3 = load ptr, ptr %2, align 8
  %4 = tail call noundef nonnull align 8 dereferenceable(52) ptr @_ZNK5clang6interp11InterpStack8peekDataEm(ptr noundef nonnull align 8 dereferenceable(16) %3, i64 noundef 56) #16
  %5 = load ptr, ptr %2, align 8
  %6 = tail call noundef ptr @_ZN5clang6interp11InterpStack4growEm(ptr noundef nonnull align 8 dereferenceable(16) %5, i64 noundef 56) #16
  tail call void @_ZN5clang6interp7PointerC1ERKS1_(ptr noundef nonnull align 8 dereferenceable(52) %6, ptr noundef nonnull align 8 dereferenceable(52) %4) #16
  ret void
}